target datalayout = "e-m:e-p270:32:32-p271:32:32-p272:64:64-i64:64-i128:128-f80:128-n8:16:32:64-S128"
target triple = "x86_64-pc-linux-gnu"

%struct._asn1_ctx_t = type { i32, i32, i8, ptr, ptr, ptr, ptr, ptr, %struct.anon, %struct.anon.2, %struct.anon.3, ptr }
%struct.anon = type { i32, i8, i8, i8, ptr, ptr, i32, i32, ptr, ptr, ptr, %union.anon }
%union.anon = type { %struct.anon.0 }
%struct.anon.0 = type { ptr }
%struct.anon.2 = type { ptr, ptr, ptr }
%struct.anon.3 = type { i32, i8, ptr, i32, i32, ptr, ptr, ptr, %union.anon.4 }
%union.anon.4 = type { %struct.anon.5 }
%struct.anon.5 = type { ptr }
%struct._packet_info = type { ptr, ptr, i32, i32, %struct.nstime_t, %struct.nstime_t, %struct.nstime_t, i8, ptr, ptr, ptr, ptr, %struct._address, %struct._address, %struct._address, %struct._address, %struct._address, %struct._address, i32, ptr, i8, [3 x i8], %struct.anon.7, i32, i32, i32, i32, ptr, i8, ptr, ptr, i16, i16, i32, i32, i16, i32, i32, ptr, ptr, ptr, i8, i8, i16, i16, i16, i32, i16, i16, ptr, ptr, ptr, ptr, ptr, i32, i32 }
%struct.nstime_t = type { i64, i32 }
%struct._address = type { i32, i32, ptr, ptr }
%struct.anon.7 = type { i8, [3 x i8] }
%struct._h245_packet_info = type { i32, [50 x i8], [50 x i8] }
%struct.except_stacknode = type { ptr, i32, %union.anon.8 }
%union.anon.8 = type { ptr }
%struct.except_cleanup = type { ptr, ptr }

@h245_pi = hidden global ptr null, align 8
@upcoming_olc = internal global ptr null, align 8
@fast_start = internal global i8 0, align 1
@upcoming_channel = internal global ptr null, align 8
@codec_type = hidden global ptr null, align 8
@hf_h245_pdu_type = internal global i32 0, align 4
@ett_h245 = internal global i32 0, align 4
@ett_h245_MultimediaSystemControlMessage = internal global i32 0, align 4
@.str.2872 = private unnamed_addr constant [6 x i8] c"H.245\00", align 1
@proto_h245 = internal global i32 0, align 4
@h245dg_tap = internal global i32 0, align 4
@.str.3227 = private unnamed_addr constant [6 x i8] c"H245 \00", align 1

; Function Attrs: null_pointer_is_valid sspstrong uwtable
define internal i32 @dissect_h245_MultimediaSystemControlMessage(ptr noundef %0, i32 noundef %1, ptr noundef %2, ptr noundef %3, i32 noundef %4) #1 {
  %6 = alloca ptr, align 8
  %7 = alloca i32, align 4
  %8 = alloca ptr, align 8
  %9 = alloca ptr, align 8
  %10 = alloca i32, align 4
  store ptr %0, ptr %6, align 8
  store i32 %1, ptr %7, align 4
  store ptr %2, ptr %8, align 8
  store ptr %3, ptr %9, align 8
  store i32 %4, ptr %10, align 4
  %11 = load ptr, ptr %6, align 8
  %12 = load i32, ptr %7, align 4
  %13 = load ptr, ptr %8, align 8
  %14 = load ptr, ptr %9, align 8
  %15 = load i32, ptr %10, align 4
  %16 = load i32, ptr @ett_h245_MultimediaSystemControlMessage, align 4
  %17 = call i32 @dissect_per_choice(ptr noundef %11, i32 noundef %12, ptr noundef %13, ptr noundef %14, i32 noundef %15, i32 noundef %16, ptr noundef @MultimediaSystemControlMessage_choice, ptr noundef null)
  store i32 %17, ptr %7, align 4
  %18 = load i32, ptr %7, align 4
  ret i32 %18
}

; Function Attrs: null_pointer_is_valid sspstrong uwtable
define internal void @init_h245_packet_info(ptr noundef %0) #1 {
  %2 = alloca ptr, align 8
  store ptr %0, ptr %2, align 8
  %3 = load ptr, ptr %2, align 8
  %4 = icmp eq ptr %3, null
  br i1 %4, label %5, label %6

5:                                                ; preds = %1
  br label %16

6:                                                ; preds = %1
  %7 = load ptr, ptr %2, align 8
  %8 = getelementptr inbounds nuw %struct._h245_packet_info, ptr %7, i32 0, i32 0
  store i32 14, ptr %8, align 4
  %9 = load ptr, ptr %2, align 8
  %10 = getelementptr inbounds nuw %struct._h245_packet_info, ptr %9, i32 0, i32 1
  %11 = getelementptr [50 x i8], ptr %10, i64 0, i64 0
  store i8 0, ptr %11, align 4
  %12 = load ptr, ptr %2, align 8
  %13 = getelementptr inbounds nuw %struct._h245_packet_info, ptr %12, i32 0, i32 2
  %14 = getelementptr inbounds [50 x i8], ptr %13, i64 0, i64 0
  %15 = call i32 (ptr, i64, i32, i64, ptr, ...) @__snprintf_chk(ptr noundef %14, i64 noundef 50, i32 noundef 2, i64 noundef 50, ptr noundef @.str.3227)
  br label %16

16:                                               ; preds = %6, %5
  ret void
}

; Function Attrs: null_pointer_is_valid sspstrong uwtable
define internal i32 @dissect_h245_h245(ptr noundef %0, ptr noundef %1, ptr noundef %2, ptr noundef %3) #1 {
  %5 = alloca ptr, align 8
  %6 = alloca ptr, align 8
  %7 = alloca ptr, align 8
  %8 = alloca ptr, align 8
  %9 = alloca ptr, align 8
  %10 = alloca ptr, align 8
  %11 = alloca i32, align 4
  %12 = alloca %struct._asn1_ctx_t, align 8
  %13 = alloca %struct.except_stacknode, align 8
  %14 = alloca %struct.except_cleanup, align 8
  store ptr %0, ptr %5, align 8
  store ptr %1, ptr %6, align 8
  store ptr %2, ptr %7, align 8
  store ptr %3, ptr %8, align 8
  call void @llvm.lifetime.start.p0(i64 8, ptr %9) #12
  call void @llvm.lifetime.start.p0(i64 8, ptr %10) #12
  call void @llvm.lifetime.start.p0(i64 4, ptr %11) #12
  store i32 0, ptr %11, align 4
  call void @llvm.lifetime.start.p0(i64 208, ptr %12) #12
  store i8 0, ptr @fast_start, align 1
  store ptr null, ptr @upcoming_olc, align 8
  store ptr null, ptr @upcoming_channel, align 8
  store ptr null, ptr @codec_type, align 8
  %15 = load ptr, ptr %6, align 8
  %16 = getelementptr inbounds nuw %struct._packet_info, ptr %15, i32 0, i32 1
  %17 = load ptr, ptr %16, align 8
  call void @col_set_str(ptr noundef %17, i32 noundef 35, ptr noundef @.str.2872)
  %18 = load ptr, ptr %7, align 8
  %19 = load i32, ptr @proto_h245, align 4
  %20 = load ptr, ptr %5, align 8
  %21 = call ptr (ptr, i32, ptr, i32, i32, ptr, ...) @proto_tree_add_protocol_format(ptr noundef %18, i32 noundef %19, ptr noundef %20, i32 noundef 0, i32 noundef -1, ptr noundef @.str.2872)
  store ptr %21, ptr %9, align 8
  %22 = load ptr, ptr %9, align 8
  %23 = load i32, ptr @ett_h245, align 4
  %24 = call ptr @proto_item_add_subtree(ptr noundef %22, i32 noundef %23)
  store ptr %24, ptr %10, align 8
  br label %25

25:                                               ; preds = %31, %4
  %26 = load ptr, ptr %5, align 8
  %27 = load i32, ptr %11, align 4
  %28 = lshr i32 %27, 3
  %29 = call i32 @tvb_reported_length_remaining(ptr noundef %26, i32 noundef %28)
  %30 = icmp sgt i32 %29, 0
  br i1 %30, label %31, label %54

31:                                               ; preds = %25
  call void @llvm.lifetime.start.p0(i64 24, ptr %13) #12
  call void @llvm.lifetime.start.p0(i64 16, ptr %14) #12
  call void @except_setup_clean(ptr noundef %13, ptr noundef %14, ptr noundef @reset_h245_pi, ptr noundef null)
  %32 = load ptr, ptr %6, align 8
  %33 = getelementptr inbounds nuw %struct._packet_info, ptr %32, i32 0, i32 51
  %34 = load ptr, ptr %33, align 8
  %35 = call noalias ptr @wmem_alloc(ptr noundef %34, i64 noundef 104) #13
  store ptr %35, ptr @h245_pi, align 8
  %36 = load ptr, ptr @h245_pi, align 8
  call void @init_h245_packet_info(ptr noundef %36)
  %37 = load ptr, ptr %6, align 8
  call void @asn1_ctx_init(ptr noundef %12, i32 noundef 1, i1 noundef zeroext true, ptr noundef %37)
  %38 = load ptr, ptr %5, align 8
  %39 = load i32, ptr %11, align 4
  %40 = load ptr, ptr %10, align 8
  %41 = load i32, ptr @hf_h245_pdu_type, align 4
  %42 = call i32 @dissect_h245_MultimediaSystemControlMessage(ptr noundef %38, i32 noundef %39, ptr noundef %12, ptr noundef %40, i32 noundef %41)
  store i32 %42, ptr %11, align 4
  %43 = load i32, ptr @h245dg_tap, align 4
  %44 = load ptr, ptr %6, align 8
  %45 = load ptr, ptr @h245_pi, align 8
  call void @tap_queue_packet(i32 noundef %43, ptr noundef %44, ptr noundef %45)
  %46 = load i32, ptr %11, align 4
  %47 = add i32 %46, 7
  %48 = and i32 %47, -8
  store i32 %48, ptr %11, align 4
  %49 = call ptr @except_pop()
  %50 = getelementptr inbounds nuw %struct.except_cleanup, ptr %14, i32 0, i32 0
  %51 = load ptr, ptr %50, align 8
  %52 = getelementptr inbounds nuw %struct.except_cleanup, ptr %14, i32 0, i32 1
  %53 = load ptr, ptr %52, align 8
  call void %51(ptr noundef %53)
  call void @llvm.lifetime.end.p0(i64 16, ptr %14) #12
  call void @llvm.lifetime.end.p0(i64 24, ptr %13) #12
  br label %25, !llvm.loop !8

54:                                               ; preds = %25
  %55 = load ptr, ptr %5, align 8
  %56 = call i32 @tvb_captured_length(ptr noundef %55)
  call void @llvm.lifetime.end.p0(i64 208, ptr %12) #12
  call void @llvm.lifetime.end.p0(i64 4, ptr %11) #12
  call void @llvm.lifetime.end.p0(i64 8, ptr %10) #12
  call void @llvm.lifetime.end.p0(i64 8, ptr %9) #12
  ret i32 %56
}