; Function Attrs: null_pointer_is_valid sspstrong uwtable
define internal i32 @dissect_h245_h245(ptr noundef %0, ptr noundef %1, ptr noundef %2, ptr readnone captures(none) %3) #1 {
  %5 = alloca %struct._asn1_ctx_t, align 8
  %6 = alloca %struct.except_stacknode, align 8
  %7 = alloca %struct.except_cleanup, align 8
  call void @llvm.lifetime.start.p0(i64 208, ptr nonnull %5) #13
  store i1 false, ptr @fast_start, align 1
  store ptr null, ptr @upcoming_olc, align 8
  store ptr null, ptr @upcoming_channel, align 8
  store ptr null, ptr @codec_type, align 8
  %8 = getelementptr inbounds nuw i8, ptr %1, i64 8
  %9 = load ptr, ptr %8, align 8
  tail call void @col_set_str(ptr noundef %9, i32 noundef 35, ptr noundef nonnull @.str.2872)
  %10 = load i32, ptr @proto_h245, align 4
  %11 = tail call ptr (ptr, i32, ptr, i32, i32, ptr, ...) @proto_tree_add_protocol_format(ptr noundef %2, i32 noundef %10, ptr noundef %0, i32 noundef 0, i32 noundef -1, ptr noundef nonnull @.str.2872)
  %12 = load i32, ptr @ett_h245, align 4
  %13 = tail call ptr @proto_item_add_subtree(ptr noundef %11, i32 noundef %12)
  %14 = tail call i32 @tvb_reported_length_remaining(ptr noundef %0, i32 noundef 0)
  %15 = icmp sgt i32 %14, 0
  br i1 %15, label %.lr.ph, label %._crit_edge

.lr.ph:                                           ; preds = %4
  %16 = getelementptr inbounds nuw i8, ptr %1, i64 408
  %17 = getelementptr inbounds nuw i8, ptr %7, i64 8
  br label %18

18:                                               ; preds = %.lr.ph, %init_h245_packet_info.exit
  %.013 = phi i32 [ 0, %.lr.ph ], [ %32, %init_h245_packet_info.exit ]
  call void @llvm.lifetime.start.p0(i64 24, ptr nonnull %6) #13
  call void @llvm.lifetime.start.p0(i64 16, ptr nonnull %7) #13
  call void @except_setup_clean(ptr noundef nonnull %6, ptr noundef nonnull %7, ptr noundef nonnull @reset_h245_pi, ptr noundef null)
  %19 = load ptr, ptr %16, align 8
  %20 = call noalias dereferenceable_or_null(104) ptr @wmem_alloc(ptr noundef %19, i64 noundef 104) #11
  store ptr %20, ptr @h245_pi, align 8
  %21 = icmp eq ptr %20, null
  br i1 %21, label %init_h245_packet_info.exit, label %22

22:                                               ; preds = %18
  store i32 14, ptr %20, align 4
  %23 = getelementptr inbounds nuw i8, ptr %20, i64 4
  store i8 0, ptr %23, align 4
  %24 = getelementptr inbounds nuw i8, ptr %20, i64 54
  %25 = call i32 (ptr, i64, i32, i64, ptr, ...) @__snprintf_chk(ptr noundef nonnull %24, i64 noundef 50, i32 noundef 2, i64 noundef 50, ptr noundef nonnull @.str.3227)
  br label %init_h245_packet_info.exit

init_h245_packet_info.exit:                       ; preds = %18, %22
  call void @asn1_ctx_init(ptr noundef nonnull %5, i32 noundef 1, i1 noundef zeroext true, ptr noundef %1)
  %26 = load i32, ptr @hf_h245_pdu_type, align 4
  %27 = load i32, ptr @ett_h245_MultimediaSystemControlMessage, align 4
  %28 = call i32 @dissect_per_choice(ptr noundef %0, i32 noundef range(i32 0, -7) %.013, ptr noundef nonnull %5, ptr noundef %13, i32 noundef %26, i32 noundef %27, ptr noundef nonnull @MultimediaSystemControlMessage_choice, ptr noundef null)
  %29 = load i32, ptr @h245dg_tap, align 4
  %30 = load ptr, ptr @h245_pi, align 8
  call void @tap_queue_packet(i32 noundef %29, ptr noundef %1, ptr noundef %30)
  %31 = add i32 %28, 7
  %32 = and i32 %31, -8
  %33 = call ptr @except_pop()
  %34 = load ptr, ptr %7, align 8
  %35 = load ptr, ptr %17, align 8
  call void %34(ptr noundef %35)
  call void @llvm.lifetime.end.p0(i64 16, ptr nonnull %7) #13
  call void @llvm.lifetime.end.p0(i64 24, ptr nonnull %6) #13
  %36 = lshr i32 %31, 3
  %37 = call i32 @tvb_reported_length_remaining(ptr noundef %0, i32 noundef %36)
  %38 = icmp sgt i32 %37, 0
  br i1 %38, label %18, label %._crit_edge, !llvm.loop !8

._crit_edge:                                      ; preds = %init_h245_packet_info.exit, %4
  %39 = call i32 @tvb_captured_length(ptr noundef %0)
  call void @llvm.lifetime.end.p0(i64 208, ptr nonnull %5) #13
  ret i32 %39
}